target datalayout = "e-m:e-p270:32:32-p271:32:32-p272:64:64-i64:64-i128:128-f80:128-n8:16:32:64-S128"
target triple = "x86_64-pc-linux-gnu"

%"struct.std::atomic.18" = type { %"struct.std::__atomic_base.19" }
%"struct.std::__atomic_base.19" = type { ptr }
%"class.tbb::detail::r1::numa_binding_observer" = type { %"class.tbb::detail::d1::task_scheduler_observer", ptr }
%"class.tbb::detail::d1::task_scheduler_observer" = type { ptr, %"struct.std::atomic.18", %"struct.std::atomic.24", ptr }
%"struct.std::atomic.24" = type { %"struct.std::__atomic_base.25" }
%"struct.std::__atomic_base.25" = type { i64 }

; Function Attrs: mustprogress nounwind sspstrong uwtable
define linkonce_odr void @_ZNSt13__atomic_baseIlEC2El(ptr noundef nonnull align 8 dereferenceable(8) %0, i64 noundef %1) unnamed_addr #1 comdat align 2 {
  %3 = alloca ptr, align 8
  %4 = alloca i64, align 8
  store ptr %0, ptr %3, align 8, !tbaa !347
  store i64 %1, ptr %4, align 8, !tbaa !99
  %5 = load ptr, ptr %3, align 8
  %6 = getelementptr inbounds nuw %"struct.std::__atomic_base.25", ptr %5, i32 0, i32 0
  %7 = load i64, ptr %4, align 8, !tbaa !99
  store i64 %7, ptr %6, align 8, !tbaa !349
  ret void
}

; Function Attrs: mustprogress nounwind sspstrong uwtable
define linkonce_odr void @_ZNSt13__atomic_baseIPN3tbb6detail2r114observer_proxyEEC2ES4_(ptr noundef nonnull align 8 dereferenceable(8) %0, ptr noundef %1) unnamed_addr #1 comdat align 2 {
  %3 = alloca ptr, align 8
  %4 = alloca ptr, align 8
  store ptr %0, ptr %3, align 8, !tbaa !344
  store ptr %1, ptr %4, align 8, !tbaa !145
  %5 = load ptr, ptr %3, align 8
  %6 = getelementptr inbounds nuw %"struct.std::__atomic_base.19", ptr %5, i32 0, i32 0
  %7 = load ptr, ptr %4, align 8, !tbaa !145
  store ptr %7, ptr %6, align 8, !tbaa !346
  ret void
}

; Function Attrs: mustprogress nounwind sspstrong uwtable
define linkonce_odr void @_ZNSt6atomicIlEC2El(ptr noundef nonnull align 8 dereferenceable(8) %0, i64 noundef %1) unnamed_addr #1 comdat align 2 {
  %3 = alloca ptr, align 8
  %4 = alloca i64, align 8
  store ptr %0, ptr %3, align 8, !tbaa !342
  store i64 %1, ptr %4, align 8, !tbaa !99
  %5 = load ptr, ptr %3, align 8
  %6 = load i64, ptr %4, align 8, !tbaa !99
  call void @_ZNSt13__atomic_baseIlEC2El(ptr noundef nonnull align 8 dereferenceable(8) %5, i64 noundef %6) #12
  ret void
}

; Function Attrs: mustprogress nounwind sspstrong uwtable
define linkonce_odr void @_ZNSt6atomicIPN3tbb6detail2r114observer_proxyEEC2ES4_(ptr noundef nonnull align 8 dereferenceable(8) %0, ptr noundef %1) unnamed_addr #1 comdat align 2 {
  %3 = alloca ptr, align 8
  %4 = alloca ptr, align 8
  store ptr %0, ptr %3, align 8, !tbaa !340
  store ptr %1, ptr %4, align 8, !tbaa !145
  %5 = load ptr, ptr %3, align 8
  %6 = getelementptr inbounds nuw %"struct.std::atomic.18", ptr %5, i32 0, i32 0
  %7 = load ptr, ptr %4, align 8, !tbaa !145
  call void @_ZNSt13__atomic_baseIPN3tbb6detail2r114observer_proxyEEC2ES4_(ptr noundef nonnull align 8 dereferenceable(8) %6, ptr noundef %7) #12
  ret void
}

; Function Attrs: mustprogress nounwind sspstrong uwtable
define linkonce_odr void @_ZN3tbb6detail2d123task_scheduler_observerC2ERNS1_10task_arenaE(ptr noundef nonnull align 8 dereferenceable(32) %0, ptr noundef nonnull align 8 dereferenceable(48) %1) unnamed_addr #1 comdat align 2 {
  %3 = alloca ptr, align 8
  %4 = alloca ptr, align 8
  store ptr %0, ptr %3, align 8, !tbaa !89
  store ptr %1, ptr %4, align 8, !tbaa !77
  %5 = load ptr, ptr %3, align 8
  store ptr getelementptr inbounds inrange(-16, 32) ({ [6 x ptr] }, ptr @_ZTVN3tbb6detail2d123task_scheduler_observerE, i32 0, i32 0, i32 2), ptr %5, align 8, !tbaa !81
  %6 = getelementptr inbounds nuw %"class.tbb::detail::d1::task_scheduler_observer", ptr %5, i32 0, i32 1
  call void @_ZNSt6atomicIPN3tbb6detail2r114observer_proxyEEC2ES4_(ptr noundef nonnull align 8 dereferenceable(8) %6, ptr noundef null) #12
  %7 = getelementptr inbounds nuw %"class.tbb::detail::d1::task_scheduler_observer", ptr %5, i32 0, i32 2
  call void @_ZNSt6atomicIlEC2El(ptr noundef nonnull align 8 dereferenceable(8) %7, i64 noundef 0) #12
  %8 = getelementptr inbounds nuw %"class.tbb::detail::d1::task_scheduler_observer", ptr %5, i32 0, i32 3
  %9 = load ptr, ptr %4, align 8, !tbaa !77
  store ptr %9, ptr %8, align 8, !tbaa !339
  ret void
}

; Function Attrs: mustprogress sspstrong uwtable
define linkonce_odr void @_ZN3tbb6detail2r121numa_binding_observerC2EPNS0_2d110task_arenaEiiii(ptr noundef nonnull align 8 dereferenceable(40) %0, ptr noundef %1, i32 noundef %2, i32 noundef %3, i32 noundef %4, i32 noundef %5) unnamed_addr #2 comdat align 2 personality ptr @__gxx_personality_v0 {
  %7 = alloca ptr, align 8
  %8 = alloca ptr, align 8
  %9 = alloca i32, align 4
  %10 = alloca i32, align 4
  %11 = alloca i32, align 4
  %12 = alloca i32, align 4
  %13 = alloca ptr, align 8
  %14 = alloca i32, align 4
  store ptr %0, ptr %7, align 8, !tbaa !80
  store ptr %1, ptr %8, align 8, !tbaa !77
  store i32 %2, ptr %9, align 4, !tbaa !79
  store i32 %3, ptr %10, align 4, !tbaa !79
  store i32 %4, ptr %11, align 4, !tbaa !79
  store i32 %5, ptr %12, align 4, !tbaa !79
  %15 = load ptr, ptr %7, align 8
  %16 = load ptr, ptr %8, align 8, !tbaa !77
  call void @_ZN3tbb6detail2d123task_scheduler_observerC2ERNS1_10task_arenaE(ptr noundef nonnull align 8 dereferenceable(32) %15, ptr noundef nonnull align 8 dereferenceable(48) %16)
  store ptr getelementptr inbounds inrange(-16, 32) ({ [6 x ptr] }, ptr @_ZTVN3tbb6detail2r121numa_binding_observerE, i32 0, i32 0, i32 2), ptr %15, align 8, !tbaa !81
  %17 = getelementptr inbounds nuw %"class.tbb::detail::r1::numa_binding_observer", ptr %15, i32 0, i32 1
  %18 = load i32, ptr %9, align 4, !tbaa !79
  %19 = load i32, ptr %10, align 4, !tbaa !79
  %20 = load i32, ptr %11, align 4, !tbaa !79
  %21 = load i32, ptr %12, align 4, !tbaa !79
  %22 = invoke noundef ptr @_ZN3tbb6detail2r125construct_binding_handlerEiiii(i32 noundef %18, i32 noundef %19, i32 noundef %20, i32 noundef %21)
          to label %23 unwind label %24

23:                                               ; preds = %6
  store ptr %22, ptr %17, align 8, !tbaa !83
  ret void

24:                                               ; preds = %6
  %25 = landingpad { ptr, i32 }
          cleanup
  %26 = extractvalue { ptr, i32 } %25, 0
  store ptr %26, ptr %13, align 8
  %27 = extractvalue { ptr, i32 } %25, 1
  store i32 %27, ptr %14, align 4
  call void @_ZN3tbb6detail2d123task_scheduler_observerD2Ev(ptr noundef nonnull align 8 dereferenceable(32) %15) #12
  br label %28

28:                                               ; preds = %24
  %29 = load ptr, ptr %13, align 8
  %30 = load i32, ptr %14, align 4
  %31 = insertvalue { ptr, i32 } poison, ptr %29, 0
  %32 = insertvalue { ptr, i32 } %31, i32 %30, 1
  resume { ptr, i32 } %32
}

; Function Attrs: mustprogress sspstrong uwtable
define noundef ptr @_ZN3tbb6detail2r126construct_binding_observerEPNS0_2d110task_arenaEiiii(ptr noundef %0, i32 noundef %1, i32 noundef %2, i32 noundef %3, i32 noundef %4) #2 {
  %6 = alloca ptr, align 8
  %7 = alloca i32, align 4
  %8 = alloca i32, align 4
  %9 = alloca i32, align 4
  %10 = alloca i32, align 4
  %11 = alloca ptr, align 8
  store ptr %0, ptr %6, align 8, !tbaa !77
  store i32 %1, ptr %7, align 4, !tbaa !79
  store i32 %2, ptr %8, align 4, !tbaa !79
  store i32 %3, ptr %9, align 4, !tbaa !79
  store i32 %4, ptr %10, align 4, !tbaa !79
  call void @llvm.lifetime.start.p0(i64 8, ptr %11) #12
  store ptr null, ptr %11, align 8, !tbaa !80
  %12 = load i32, ptr %9, align 4, !tbaa !79
  %13 = icmp sge i32 %12, 0
  br i1 %13, label %14, label %17

14:                                               ; preds = %5
  %15 = call noundef i32 @_ZN3tbb6detail2r115core_type_countEl(i64 noundef 0)
  %16 = icmp ugt i32 %15, 1
  br i1 %16, label %26, label %17

17:                                               ; preds = %14, %5
  %18 = load i32, ptr %8, align 4, !tbaa !79
  %19 = icmp sge i32 %18, 0
  br i1 %19, label %20, label %23

20:                                               ; preds = %17
  %21 = call noundef i32 @_ZN3tbb6detail2r115numa_node_countEv()
  %22 = icmp ugt i32 %21, 1
  br i1 %22, label %26, label %23

23:                                               ; preds = %20, %17
  %24 = load i32, ptr %10, align 4, !tbaa !79
  %25 = icmp sgt i32 %24, 0
  br i1 %25, label %26, label %33

26:                                               ; preds = %23, %20, %14
  %27 = call noundef ptr @_ZN3tbb6detail2r115allocate_memoryEm(i64 noundef 40)
  %28 = load ptr, ptr %6, align 8, !tbaa !77
  %29 = load i32, ptr %7, align 4, !tbaa !79
  %30 = load i32, ptr %8, align 4, !tbaa !79
  %31 = load i32, ptr %9, align 4, !tbaa !79
  %32 = load i32, ptr %10, align 4, !tbaa !79
  call void @_ZN3tbb6detail2r121numa_binding_observerC2EPNS0_2d110task_arenaEiiii(ptr noundef nonnull align 8 dereferenceable(40) %27, ptr noundef %28, i32 noundef %29, i32 noundef %30, i32 noundef %31, i32 noundef %32)
  store ptr %27, ptr %11, align 8, !tbaa !80
  br label %33

33:                                               ; preds = %26, %23
  %34 = load ptr, ptr %11, align 8, !tbaa !80
  call void @llvm.lifetime.end.p0(i64 8, ptr %11) #12
  ret ptr %34
}