; Function Attrs: mustprogress sspstrong uwtable
define noundef ptr @_ZN3tbb6detail2r126construct_binding_observerEPNS0_2d110task_arenaEiiii(ptr noundef %0, i32 noundef %1, i32 noundef %2, i32 noundef %3, i32 noundef %4) local_unnamed_addr #1 personality ptr @__gxx_personality_v0 {
  %6 = icmp sgt i32 %3, -1
  br i1 %6, label %7, label %10

7:                                                ; preds = %5
  %8 = tail call noundef i32 @_ZN3tbb6detail2r115core_type_countEl(i64 noundef 0)
  %9 = icmp ugt i32 %8, 1
  br i1 %9, label %17, label %10

10:                                               ; preds = %7, %5
  %11 = icmp sgt i32 %2, -1
  br i1 %11, label %12, label %16

12:                                               ; preds = %10
  %13 = tail call noundef i32 @_ZN3tbb6detail2r115numa_node_countEv()
  %14 = icmp ugt i32 %13, 1
  %15 = icmp sgt i32 %4, 0
  %or.cond = or i1 %15, %14
  br i1 %or.cond, label %17, label %25

16:                                               ; preds = %10
  %.old1 = icmp sgt i32 %4, 0
  br i1 %.old1, label %17, label %25

17:                                               ; preds = %16, %12, %7
  %18 = tail call noundef ptr @_ZN3tbb6detail2r115allocate_memoryEm(i64 noundef 40)
  %19 = getelementptr inbounds nuw i8, ptr %18, i64 8
  %20 = getelementptr inbounds nuw i8, ptr %18, i64 24
  tail call void @llvm.memset.p0.i64(ptr noundef nonnull align 8 dereferenceable(16) %19, i8 0, i64 16, i1 false)
  store ptr %0, ptr %20, align 8, !tbaa !49
  store ptr getelementptr inbounds nuw inrange(-16, 32) (i8, ptr @_ZTVN3tbb6detail2r121numa_binding_observerE, i64 16), ptr %18, align 8, !tbaa !54
  %21 = invoke noundef ptr @_ZN3tbb6detail2r125construct_binding_handlerEiiii(i32 noundef %1, i32 noundef %2, i32 noundef %3, i32 noundef %4)
          to label %_ZN3tbb6detail2r121numa_binding_observerC2EPNS0_2d110task_arenaEiiii.exit unwind label %22

22:                                               ; preds = %17
  %23 = landingpad { ptr, i32 }
          cleanup
  tail call void @_ZN3tbb6detail2d123task_scheduler_observerD2Ev(ptr noundef nonnull align 8 dereferenceable(40) %18) #13
  resume { ptr, i32 } %23

_ZN3tbb6detail2r121numa_binding_observerC2EPNS0_2d110task_arenaEiiii.exit: ; preds = %17
  %24 = getelementptr inbounds nuw i8, ptr %18, i64 32
  store ptr %21, ptr %24, align 8, !tbaa !56
  br label %25

25:                                               ; preds = %12, %_ZN3tbb6detail2r121numa_binding_observerC2EPNS0_2d110task_arenaEiiii.exit, %16
  %.0 = phi ptr [ %18, %_ZN3tbb6detail2r121numa_binding_observerC2EPNS0_2d110task_arenaEiiii.exit ], [ null, %12 ], [ null, %16 ]
  ret ptr %.0
}